
./test/test.om:     file format elf32-littleriscv


Disassembly of section .rom:

00000000 <.rom>:
   0:	00020137          	lui	sp,0x20
   4:	0d4010ef          	jal	ra,10d8 <main>
   8:	0ff00513          	li	a0,255
   c:	000306b7          	lui	a3,0x30
  10:	00a68223          	sb	a0,4(a3) # 30004 <__heap_start+0x2c004>
  14:	ff9ff06f          	j	c <__mulsi3-0xff4>

Disassembly of section .text:

00001000 <__mulsi3>:
    1000:	00050613          	mv	a2,a0
    1004:	00000513          	li	a0,0
    1008:	0015f693          	andi	a3,a1,1
    100c:	00068463          	beqz	a3,1014 <__mulsi3+0x14>
    1010:	00c50533          	add	a0,a0,a2
    1014:	0015d593          	srli	a1,a1,0x1
    1018:	00161613          	slli	a2,a2,0x1
    101c:	fe0596e3          	bnez	a1,1008 <__mulsi3+0x8>
    1020:	00008067          	ret

00001024 <__divsi3>:
    1024:	06054063          	bltz	a0,1084 <__umodsi3+0x10>
    1028:	0605c663          	bltz	a1,1094 <__umodsi3+0x20>

0000102c <__udivsi3>:
    102c:	00058613          	mv	a2,a1
    1030:	00050593          	mv	a1,a0
    1034:	fff00513          	li	a0,-1
    1038:	02060c63          	beqz	a2,1070 <__udivsi3+0x44>
    103c:	00100693          	li	a3,1
    1040:	00b67a63          	bgeu	a2,a1,1054 <__udivsi3+0x28>
    1044:	00c05863          	blez	a2,1054 <__udivsi3+0x28>
    1048:	00161613          	slli	a2,a2,0x1
    104c:	00169693          	slli	a3,a3,0x1
    1050:	feb66ae3          	bltu	a2,a1,1044 <__udivsi3+0x18>
    1054:	00000513          	li	a0,0
    1058:	00c5e663          	bltu	a1,a2,1064 <__udivsi3+0x38>
    105c:	40c585b3          	sub	a1,a1,a2
    1060:	00d56533          	or	a0,a0,a3
    1064:	0016d693          	srli	a3,a3,0x1
    1068:	00165613          	srli	a2,a2,0x1
    106c:	fe0696e3          	bnez	a3,1058 <__udivsi3+0x2c>
    1070:	00008067          	ret

00001074 <__umodsi3>:
    1074:	00008293          	mv	t0,ra
    1078:	fb5ff0ef          	jal	ra,102c <__udivsi3>
    107c:	00058513          	mv	a0,a1
    1080:	00028067          	jr	t0
    1084:	40a00533          	neg	a0,a0
    1088:	0005d863          	bgez	a1,1098 <__umodsi3+0x24>
    108c:	40b005b3          	neg	a1,a1
    1090:	f9dff06f          	j	102c <__udivsi3>
    1094:	40b005b3          	neg	a1,a1
    1098:	00008293          	mv	t0,ra
    109c:	f91ff0ef          	jal	ra,102c <__udivsi3>
    10a0:	40a00533          	neg	a0,a0
    10a4:	00028067          	jr	t0

000010a8 <__modsi3>:
    10a8:	00008293          	mv	t0,ra
    10ac:	0005ca63          	bltz	a1,10c0 <__modsi3+0x18>
    10b0:	00054c63          	bltz	a0,10c8 <__modsi3+0x20>
    10b4:	f79ff0ef          	jal	ra,102c <__udivsi3>
    10b8:	00058513          	mv	a0,a1
    10bc:	00028067          	jr	t0
    10c0:	40b005b3          	neg	a1,a1
    10c4:	fe0558e3          	bgez	a0,10b4 <__modsi3+0xc>
    10c8:	40a00533          	neg	a0,a0
    10cc:	f61ff0ef          	jal	ra,102c <__udivsi3>
    10d0:	40b00533          	neg	a0,a1
    10d4:	00028067          	jr	t0

Disassembly of section .text.startup:

000010d8 <main>:
    10d8:	000017b7          	lui	a5,0x1
    10dc:	00003737          	lui	a4,0x3
    10e0:	fa010113          	addi	sp,sp,-96 # 1ffa0 <__heap_start+0x1bfa0>
    10e4:	30c78793          	addi	a5,a5,780 # 130c <__bss_start>
    10e8:	bc070713          	addi	a4,a4,-1088 # 2bc0 <__bss_start+0x18b4>
    10ec:	04112e23          	sw	ra,92(sp)
    10f0:	04812c23          	sw	s0,88(sp)
    10f4:	04912a23          	sw	s1,84(sp)
    10f8:	05212823          	sw	s2,80(sp)
    10fc:	05312623          	sw	s3,76(sp)
    1100:	05412423          	sw	s4,72(sp)
    1104:	05512223          	sw	s5,68(sp)
    1108:	05612023          	sw	s6,64(sp)
    110c:	03712e23          	sw	s7,60(sp)
    1110:	03812c23          	sw	s8,56(sp)
    1114:	03912a23          	sw	s9,52(sp)
    1118:	03a12823          	sw	s10,48(sp)
    111c:	03b12623          	sw	s11,44(sp)
    1120:	00e78733          	add	a4,a5,a4
    1124:	7d000693          	li	a3,2000
    1128:	00d7a023          	sw	a3,0(a5)
    112c:	00478793          	addi	a5,a5,4
    1130:	fef71ce3          	bne	a4,a5,1128 <main+0x50>
    1134:	00002db7          	lui	s11,0x2
    1138:	00001c37          	lui	s8,0x1
    113c:	00004cb7          	lui	s9,0x4
    1140:	710d8793          	addi	a5,s11,1808 # 2710 <__bss_start+0x1404>
    1144:	aefc0d13          	addi	s10,s8,-1297 # aef <__mulsi3-0x511>
    1148:	ec8c8c93          	addi	s9,s9,-312 # 3ec8 <__bss_start+0x2bbc>
    114c:	5dfc0c13          	addi	s8,s8,1503
    1150:	00000493          	li	s1,0
    1154:	01410a13          	addi	s4,sp,20
    1158:	00f12623          	sw	a5,12(sp)
    115c:	00900b13          	li	s6,9
    1160:	00030bb7          	lui	s7,0x30
    1164:	004ca783          	lw	a5,4(s9)
    1168:	000c0593          	mv	a1,s8
    116c:	000d0413          	mv	s0,s10
    1170:	00279913          	slli	s2,a5,0x2
    1174:	00f90933          	add	s2,s2,a5
    1178:	00391913          	slli	s2,s2,0x3
    117c:	40f90933          	sub	s2,s2,a5
    1180:	00491913          	slli	s2,s2,0x4
    1184:	00f90933          	add	s2,s2,a5
    1188:	00491913          	slli	s2,s2,0x4
    118c:	00090513          	mv	a0,s2
    1190:	f19ff0ef          	jal	ra,10a8 <__modsi3>
    1194:	00aca223          	sw	a0,4(s9)
    1198:	000c0593          	mv	a1,s8
    119c:	00090513          	mv	a0,s2
    11a0:	e85ff0ef          	jal	ra,1024 <__divsi3>
    11a4:	00050a93          	mv	s5,a0
    11a8:	ffec0993          	addi	s3,s8,-2
    11ac:	000c8913          	mv	s2,s9
    11b0:	00040593          	mv	a1,s0
    11b4:	000a8513          	mv	a0,s5
    11b8:	e49ff0ef          	jal	ra,1000 <__mulsi3>
    11bc:	00092783          	lw	a5,0(s2)
    11c0:	00098593          	mv	a1,s3
    11c4:	fff40413          	addi	s0,s0,-1
    11c8:	00279a93          	slli	s5,a5,0x2
    11cc:	00fa8ab3          	add	s5,s5,a5
    11d0:	003a9a93          	slli	s5,s5,0x3
    11d4:	40fa8ab3          	sub	s5,s5,a5
    11d8:	004a9a93          	slli	s5,s5,0x4
    11dc:	00fa8ab3          	add	s5,s5,a5
    11e0:	004a9a93          	slli	s5,s5,0x4
    11e4:	00aa8ab3          	add	s5,s5,a0
    11e8:	000a8513          	mv	a0,s5
    11ec:	ebdff0ef          	jal	ra,10a8 <__modsi3>
    11f0:	00a92023          	sw	a0,0(s2)
    11f4:	00098593          	mv	a1,s3
    11f8:	000a8513          	mv	a0,s5
    11fc:	e29ff0ef          	jal	ra,1024 <__divsi3>
    1200:	00050a93          	mv	s5,a0
    1204:	ffc90913          	addi	s2,s2,-4
    1208:	ffe98993          	addi	s3,s3,-2
    120c:	fa0412e3          	bnez	s0,11b0 <main+0xd8>
    1210:	00c12583          	lw	a1,12(sp)
    1214:	00000913          	li	s2,0
    1218:	e0dff0ef          	jal	ra,1024 <__divsi3>
    121c:	009504b3          	add	s1,a0,s1
    1220:	0004dc63          	bgez	s1,1238 <main+0x160>
    1224:	409004b3          	neg	s1,s1
    1228:	00100913          	li	s2,1
    122c:	00c0006f          	j	1238 <main+0x160>
    1230:	000d8413          	mv	s0,s11
    1234:	00050493          	mv	s1,a0
    1238:	00a00593          	li	a1,10
    123c:	00048513          	mv	a0,s1
    1240:	e69ff0ef          	jal	ra,10a8 <__modsi3>
    1244:	03050513          	addi	a0,a0,48
    1248:	00140d93          	addi	s11,s0,1
    124c:	0ff57993          	andi	s3,a0,255
    1250:	01ba0733          	add	a4,s4,s11
    1254:	00048513          	mv	a0,s1
    1258:	00a00593          	li	a1,10
    125c:	ff370fa3          	sb	s3,-1(a4)
    1260:	dc5ff0ef          	jal	ra,1024 <__divsi3>
    1264:	fc9b46e3          	blt	s6,s1,1230 <main+0x158>
    1268:	00090e63          	beqz	s2,1284 <main+0x1ac>
    126c:	02010793          	addi	a5,sp,32
    1270:	01b78733          	add	a4,a5,s11
    1274:	02d00793          	li	a5,45
    1278:	fef70a23          	sb	a5,-12(a4)
    127c:	000d8413          	mv	s0,s11
    1280:	02d00993          	li	s3,45
    1284:	008a0433          	add	s0,s4,s0
    1288:	00c0006f          	j	1294 <main+0x1bc>
    128c:	fff44983          	lbu	s3,-1(s0)
    1290:	00078413          	mv	s0,a5
    1294:	013b8023          	sb	s3,0(s7) # 30000 <__heap_start+0x2c000>
    1298:	fff40793          	addi	a5,s0,-1
    129c:	fe8a18e3          	bne	s4,s0,128c <main+0x1b4>
    12a0:	00c12583          	lw	a1,12(sp)
    12a4:	000a8513          	mv	a0,s5
    12a8:	fe4c0c13          	addi	s8,s8,-28
    12ac:	dfdff0ef          	jal	ra,10a8 <__modsi3>
    12b0:	fff00793          	li	a5,-1
    12b4:	00050493          	mv	s1,a0
    12b8:	ff2d0d13          	addi	s10,s10,-14
    12bc:	fc8c8c93          	addi	s9,s9,-56
    12c0:	eafc12e3          	bne	s8,a5,1164 <main+0x8c>
    12c4:	00a00793          	li	a5,10
    12c8:	00fb8023          	sb	a5,0(s7)
    12cc:	05c12083          	lw	ra,92(sp)
    12d0:	05812403          	lw	s0,88(sp)
    12d4:	05412483          	lw	s1,84(sp)
    12d8:	05012903          	lw	s2,80(sp)
    12dc:	04c12983          	lw	s3,76(sp)
    12e0:	04812a03          	lw	s4,72(sp)
    12e4:	04412a83          	lw	s5,68(sp)
    12e8:	04012b03          	lw	s6,64(sp)
    12ec:	03c12b83          	lw	s7,60(sp)
    12f0:	03812c03          	lw	s8,56(sp)
    12f4:	03412c83          	lw	s9,52(sp)
    12f8:	03012d03          	lw	s10,48(sp)
    12fc:	02c12d83          	lw	s11,44(sp)
    1300:	00000513          	li	a0,0
    1304:	06010113          	addi	sp,sp,96
    1308:	00008067          	ret
