
./test/test.om:     file format elf32-littleriscv


Disassembly of section .rom:

00000000 <.rom>:
   0:	00020137          	lui	sp,0x20
   4:	2e0010ef          	jal	ra,12e4 <main>
   8:	0ff00513          	li	a0,255
   c:	000306b7          	lui	a3,0x30
  10:	00a68223          	sb	a0,4(a3) # 30004 <__heap_start+0x2e004>
  14:	ff9ff06f          	j	c <cd-0xff4>

Disassembly of section .text:

00001000 <cd>:
    1000:	fd010113          	addi	sp,sp,-48 # 1ffd0 <__heap_start+0x1dfd0>
    1004:	02912223          	sw	s1,36(sp)
    1008:	03212023          	sw	s2,32(sp)
    100c:	01812423          	sw	s8,8(sp)
    1010:	00001937          	lui	s2,0x1
    1014:	000014b7          	lui	s1,0x1
    1018:	00055c37          	lui	s8,0x55
    101c:	02812423          	sw	s0,40(sp)
    1020:	01312e23          	sw	s3,28(sp)
    1024:	01412c23          	sw	s4,24(sp)
    1028:	01512a23          	sw	s5,20(sp)
    102c:	01612823          	sw	s6,16(sp)
    1030:	01712623          	sw	s7,12(sp)
    1034:	01912223          	sw	s9,4(sp)
    1038:	01a12023          	sw	s10,0(sp)
    103c:	02112623          	sw	ra,44(sp)
    1040:	00050993          	mv	s3,a0
    1044:	00058b13          	mv	s6,a1
    1048:	00060d13          	mv	s10,a2
    104c:	00068b93          	mv	s7,a3
    1050:	00050c93          	mv	s9,a0
    1054:	49890913          	addi	s2,s2,1176 # 1498 <main+0x1b4>
    1058:	4a048493          	addi	s1,s1,1184 # 14a0 <main+0x1bc>
    105c:	00030437          	lui	s0,0x30
    1060:	72fc0c13          	addi	s8,s8,1839 # 5572f <__heap_start+0x5372f>
    1064:	00100a13          	li	s4,1
    1068:	00a00a93          	li	s5,10
    106c:	00444583          	lbu	a1,4(s0) # 30004 <__heap_start+0x2e004>
    1070:	00544783          	lbu	a5,5(s0)
    1074:	00644683          	lbu	a3,6(s0)
    1078:	00744603          	lbu	a2,7(s0)
    107c:	0ff5f593          	andi	a1,a1,255
    1080:	0ff6f693          	andi	a3,a3,255
    1084:	01861613          	slli	a2,a2,0x18
    1088:	01069693          	slli	a3,a3,0x10
    108c:	0ff7f793          	andi	a5,a5,255
    1090:	00d66633          	or	a2,a2,a3
    1094:	00b66633          	or	a2,a2,a1
    1098:	00879793          	slli	a5,a5,0x8
    109c:	00f66633          	or	a2,a2,a5
    10a0:	00444683          	lbu	a3,4(s0)
    10a4:	00544803          	lbu	a6,5(s0)
    10a8:	00644883          	lbu	a7,6(s0)
    10ac:	00744783          	lbu	a5,7(s0)
    10b0:	0ff6f693          	andi	a3,a3,255
    10b4:	0ff8f893          	andi	a7,a7,255
    10b8:	01879793          	slli	a5,a5,0x18
    10bc:	01089893          	slli	a7,a7,0x10
    10c0:	0ff87813          	andi	a6,a6,255
    10c4:	0117e7b3          	or	a5,a5,a7
    10c8:	00d7e7b3          	or	a5,a5,a3
    10cc:	00881813          	slli	a6,a6,0x8
    10d0:	0107e7b3          	or	a5,a5,a6
    10d4:	40c787b3          	sub	a5,a5,a2
    10d8:	fcfc74e3          	bgeu	s8,a5,10a0 <cd+0xa0>
    10dc:	094c8e63          	beq	s9,s4,1178 <cd+0x178>
    10e0:	fffc8c93          	addi	s9,s9,-1
    10e4:	000d0693          	mv	a3,s10
    10e8:	000b8613          	mv	a2,s7
    10ec:	000b0593          	mv	a1,s6
    10f0:	000c8513          	mv	a0,s9
    10f4:	f0dff0ef          	jal	ra,1000 <cd>
    10f8:	00050713          	mv	a4,a0
    10fc:	00090693          	mv	a3,s2
    1100:	06d00793          	li	a5,109
    1104:	00f40023          	sb	a5,0(s0)
    1108:	0016c783          	lbu	a5,1(a3)
    110c:	00168693          	addi	a3,a3,1
    1110:	fe079ae3          	bnez	a5,1104 <cd+0x104>
    1114:	000b4783          	lbu	a5,0(s6)
    1118:	00078c63          	beqz	a5,1130 <cd+0x130>
    111c:	000b0693          	mv	a3,s6
    1120:	00f40023          	sb	a5,0(s0)
    1124:	0016c783          	lbu	a5,1(a3)
    1128:	00168693          	addi	a3,a3,1
    112c:	fe079ae3          	bnez	a5,1120 <cd+0x120>
    1130:	00048693          	mv	a3,s1
    1134:	02000793          	li	a5,32
    1138:	00f40023          	sb	a5,0(s0)
    113c:	0016c783          	lbu	a5,1(a3)
    1140:	00168693          	addi	a3,a3,1
    1144:	fe079ae3          	bnez	a5,1138 <cd+0x138>
    1148:	000bc783          	lbu	a5,0(s7)
    114c:	00078c63          	beqz	a5,1164 <cd+0x164>
    1150:	000b8693          	mv	a3,s7
    1154:	00f40023          	sb	a5,0(s0)
    1158:	0016c783          	lbu	a5,1(a3)
    115c:	00168693          	addi	a3,a3,1
    1160:	fe079ae3          	bnez	a5,1154 <cd+0x154>
    1164:	000b0793          	mv	a5,s6
    1168:	01540023          	sb	s5,0(s0)
    116c:	000d0b13          	mv	s6,s10
    1170:	00078d13          	mv	s10,a5
    1174:	ef9ff06f          	j	106c <cd+0x6c>
    1178:	fff98513          	addi	a0,s3,-1
    117c:	06d00793          	li	a5,109
    1180:	000306b7          	lui	a3,0x30
    1184:	00f68023          	sb	a5,0(a3) # 30000 <__heap_start+0x2e000>
    1188:	00194783          	lbu	a5,1(s2)
    118c:	00190913          	addi	s2,s2,1
    1190:	fe079ae3          	bnez	a5,1184 <cd+0x184>
    1194:	000b4783          	lbu	a5,0(s6)
    1198:	00078c63          	beqz	a5,11b0 <cd+0x1b0>
    119c:	000306b7          	lui	a3,0x30
    11a0:	00f68023          	sb	a5,0(a3) # 30000 <__heap_start+0x2e000>
    11a4:	001b4783          	lbu	a5,1(s6)
    11a8:	001b0b13          	addi	s6,s6,1
    11ac:	fe079ae3          	bnez	a5,11a0 <cd+0x1a0>
    11b0:	02000793          	li	a5,32
    11b4:	000306b7          	lui	a3,0x30
    11b8:	00f68023          	sb	a5,0(a3) # 30000 <__heap_start+0x2e000>
    11bc:	0014c783          	lbu	a5,1(s1)
    11c0:	00148493          	addi	s1,s1,1
    11c4:	fe079ae3          	bnez	a5,11b8 <cd+0x1b8>
    11c8:	000bc783          	lbu	a5,0(s7)
    11cc:	00078c63          	beqz	a5,11e4 <cd+0x1e4>
    11d0:	000306b7          	lui	a3,0x30
    11d4:	00f68023          	sb	a5,0(a3) # 30000 <__heap_start+0x2e000>
    11d8:	001bc783          	lbu	a5,1(s7)
    11dc:	001b8b93          	addi	s7,s7,1
    11e0:	fe079ae3          	bnez	a5,11d4 <cd+0x1d4>
    11e4:	000307b7          	lui	a5,0x30
    11e8:	00a00693          	li	a3,10
    11ec:	00d78023          	sb	a3,0(a5) # 30000 <__heap_start+0x2e000>
    11f0:	02c12083          	lw	ra,44(sp)
    11f4:	02812403          	lw	s0,40(sp)
    11f8:	00170713          	addi	a4,a4,1
    11fc:	02412483          	lw	s1,36(sp)
    1200:	02012903          	lw	s2,32(sp)
    1204:	01c12983          	lw	s3,28(sp)
    1208:	01812a03          	lw	s4,24(sp)
    120c:	01412a83          	lw	s5,20(sp)
    1210:	01012b03          	lw	s6,16(sp)
    1214:	00c12b83          	lw	s7,12(sp)
    1218:	00812c03          	lw	s8,8(sp)
    121c:	00412c83          	lw	s9,4(sp)
    1220:	00012d03          	lw	s10,0(sp)
    1224:	00a70533          	add	a0,a4,a0
    1228:	03010113          	addi	sp,sp,48
    122c:	00008067          	ret

00001230 <__divsi3>:
    1230:	06054063          	bltz	a0,1290 <__umodsi3+0x10>
    1234:	0605c663          	bltz	a1,12a0 <__umodsi3+0x20>

00001238 <__udivsi3>:
    1238:	00058613          	mv	a2,a1
    123c:	00050593          	mv	a1,a0
    1240:	fff00513          	li	a0,-1
    1244:	02060c63          	beqz	a2,127c <__udivsi3+0x44>
    1248:	00100693          	li	a3,1
    124c:	00b67a63          	bgeu	a2,a1,1260 <__udivsi3+0x28>
    1250:	00c05863          	blez	a2,1260 <__udivsi3+0x28>
    1254:	00161613          	slli	a2,a2,0x1
    1258:	00169693          	slli	a3,a3,0x1
    125c:	feb66ae3          	bltu	a2,a1,1250 <__udivsi3+0x18>
    1260:	00000513          	li	a0,0
    1264:	00c5e663          	bltu	a1,a2,1270 <__udivsi3+0x38>
    1268:	40c585b3          	sub	a1,a1,a2
    126c:	00d56533          	or	a0,a0,a3
    1270:	0016d693          	srli	a3,a3,0x1
    1274:	00165613          	srli	a2,a2,0x1
    1278:	fe0696e3          	bnez	a3,1264 <__udivsi3+0x2c>
    127c:	00008067          	ret

00001280 <__umodsi3>:
    1280:	00008293          	mv	t0,ra
    1284:	fb5ff0ef          	jal	ra,1238 <__udivsi3>
    1288:	00058513          	mv	a0,a1
    128c:	00028067          	jr	t0
    1290:	40a00533          	neg	a0,a0
    1294:	0005d863          	bgez	a1,12a4 <__umodsi3+0x24>
    1298:	40b005b3          	neg	a1,a1
    129c:	f9dff06f          	j	1238 <__udivsi3>
    12a0:	40b005b3          	neg	a1,a1
    12a4:	00008293          	mv	t0,ra
    12a8:	f91ff0ef          	jal	ra,1238 <__udivsi3>
    12ac:	40a00533          	neg	a0,a0
    12b0:	00028067          	jr	t0

000012b4 <__modsi3>:
    12b4:	00008293          	mv	t0,ra
    12b8:	0005ca63          	bltz	a1,12cc <__modsi3+0x18>
    12bc:	00054c63          	bltz	a0,12d4 <__modsi3+0x20>
    12c0:	f79ff0ef          	jal	ra,1238 <__udivsi3>
    12c4:	00058513          	mv	a0,a1
    12c8:	00028067          	jr	t0
    12cc:	40b005b3          	neg	a1,a1
    12d0:	fe0558e3          	bgez	a0,12c0 <__modsi3+0xc>
    12d4:	40a00533          	neg	a0,a0
    12d8:	f61ff0ef          	jal	ra,1238 <__udivsi3>
    12dc:	40b00533          	neg	a0,a1
    12e0:	00028067          	jr	t0

Disassembly of section .text.startup:

000012e4 <main>:
    12e4:	fb010113          	addi	sp,sp,-80
    12e8:	04100793          	li	a5,65
    12ec:	00f12623          	sw	a5,12(sp)
    12f0:	04200793          	li	a5,66
    12f4:	00f12a23          	sw	a5,20(sp)
    12f8:	04300793          	li	a5,67
    12fc:	04112623          	sw	ra,76(sp)
    1300:	04812423          	sw	s0,72(sp)
    1304:	04912223          	sw	s1,68(sp)
    1308:	05212023          	sw	s2,64(sp)
    130c:	03312e23          	sw	s3,60(sp)
    1310:	03412c23          	sw	s4,56(sp)
    1314:	03512a23          	sw	s5,52(sp)
    1318:	03612823          	sw	s6,48(sp)
    131c:	00010823          	sb	zero,16(sp)
    1320:	00010c23          	sb	zero,24(sp)
    1324:	00f12e23          	sw	a5,28(sp)
    1328:	02010023          	sb	zero,32(sp)
    132c:	000306b7          	lui	a3,0x30
    1330:	00a00713          	li	a4,10
    1334:	02000613          	li	a2,32
    1338:	00900593          	li	a1,9
    133c:	0080006f          	j	1344 <main+0x60>
    1340:	14e79263          	bne	a5,a4,1484 <main+0x1a0>
    1344:	0006c783          	lbu	a5,0(a3) # 30000 <__heap_start+0x2e000>
    1348:	0ff7f793          	andi	a5,a5,255
    134c:	fe079ae3          	bnez	a5,1340 <main+0x5c>
    1350:	00000613          	li	a2,0
    1354:	00000513          	li	a0,0
    1358:	02d00893          	li	a7,45
    135c:	00900813          	li	a6,9
    1360:	000305b7          	lui	a1,0x30
    1364:	0180006f          	j	137c <main+0x98>
    1368:	04d86463          	bltu	a6,a3,13b0 <main+0xcc>
    136c:	0005c783          	lbu	a5,0(a1) # 30000 <__heap_start+0x2e000>
    1370:	fd070513          	addi	a0,a4,-48
    1374:	0ff7f793          	andi	a5,a5,255
    1378:	02078c63          	beqz	a5,13b0 <main+0xcc>
    137c:	00251713          	slli	a4,a0,0x2
    1380:	00a70733          	add	a4,a4,a0
    1384:	00171713          	slli	a4,a4,0x1
    1388:	fd078693          	addi	a3,a5,-48
    138c:	00f70733          	add	a4,a4,a5
    1390:	0ff6f693          	andi	a3,a3,255
    1394:	fd179ae3          	bne	a5,a7,1368 <main+0x84>
    1398:	0e061c63          	bnez	a2,1490 <main+0x1ac>
    139c:	0005c783          	lbu	a5,0(a1)
    13a0:	00100613          	li	a2,1
    13a4:	fd070513          	addi	a0,a4,-48
    13a8:	0ff7f793          	andi	a5,a5,255
    13ac:	fc0798e3          	bnez	a5,137c <main+0x98>
    13b0:	0e061063          	bnez	a2,1490 <main+0x1ac>
    13b4:	00000713          	li	a4,0
    13b8:	01c10693          	addi	a3,sp,28
    13bc:	01410613          	addi	a2,sp,20
    13c0:	00c10593          	addi	a1,sp,12
    13c4:	c3dff0ef          	jal	ra,1000 <cd>
    13c8:	00050493          	mv	s1,a0
    13cc:	00000993          	li	s3,0
    13d0:	00055663          	bgez	a0,13dc <main+0xf8>
    13d4:	40a004b3          	neg	s1,a0
    13d8:	00100993          	li	s3,1
    13dc:	00000413          	li	s0,0
    13e0:	02410913          	addi	s2,sp,36
    13e4:	00900a13          	li	s4,9
    13e8:	00a00593          	li	a1,10
    13ec:	00048513          	mv	a0,s1
    13f0:	ec5ff0ef          	jal	ra,12b4 <__modsi3>
    13f4:	00040b13          	mv	s6,s0
    13f8:	00140413          	addi	s0,s0,1
    13fc:	03050793          	addi	a5,a0,48
    1400:	00890733          	add	a4,s2,s0
    1404:	00048513          	mv	a0,s1
    1408:	00a00593          	li	a1,10
    140c:	fef70fa3          	sb	a5,-1(a4)
    1410:	00048a93          	mv	s5,s1
    1414:	e1dff0ef          	jal	ra,1230 <__divsi3>
    1418:	00050493          	mv	s1,a0
    141c:	fd5a46e3          	blt	s4,s5,13e8 <main+0x104>
    1420:	00098c63          	beqz	s3,1438 <main+0x154>
    1424:	03010793          	addi	a5,sp,48
    1428:	00878433          	add	s0,a5,s0
    142c:	02d00793          	li	a5,45
    1430:	fef40a23          	sb	a5,-12(s0)
    1434:	002b0413          	addi	s0,s6,2
    1438:	00890433          	add	s0,s2,s0
    143c:	000307b7          	lui	a5,0x30
    1440:	fff44703          	lbu	a4,-1(s0)
    1444:	fff40413          	addi	s0,s0,-1
    1448:	00e78023          	sb	a4,0(a5) # 30000 <__heap_start+0x2e000>
    144c:	fe891ae3          	bne	s2,s0,1440 <main+0x15c>
    1450:	00a00713          	li	a4,10
    1454:	00e78023          	sb	a4,0(a5)
    1458:	04c12083          	lw	ra,76(sp)
    145c:	04812403          	lw	s0,72(sp)
    1460:	04412483          	lw	s1,68(sp)
    1464:	04012903          	lw	s2,64(sp)
    1468:	03c12983          	lw	s3,60(sp)
    146c:	03812a03          	lw	s4,56(sp)
    1470:	03412a83          	lw	s5,52(sp)
    1474:	03012b03          	lw	s6,48(sp)
    1478:	00000513          	li	a0,0
    147c:	05010113          	addi	sp,sp,80
    1480:	00008067          	ret
    1484:	ecc780e3          	beq	a5,a2,1344 <main+0x60>
    1488:	eab78ee3          	beq	a5,a1,1344 <main+0x60>
    148c:	ec5ff06f          	j	1350 <main+0x6c>
    1490:	40a00533          	neg	a0,a0
    1494:	f21ff06f          	j	13b4 <main+0xd0>
